; Function Attrs: nounwind uwtable
define hidden void @zim_DOMElement_replaceChildren(ptr nocapture noundef readonly %0, ptr nocapture noundef readnone %1) local_unnamed_addr #0 {
  %3 = alloca i32, align 4
  %4 = alloca ptr, align 8
  store i32 0, ptr %3, align 4
  %5 = getelementptr inbounds i8, ptr %0, i64 44
  %6 = load i32, ptr %5, align 4
  %7 = call i32 (i32, ptr, ...) @zend_parse_parameters(i32 noundef %6, ptr noundef nonnull @.str.18, ptr noundef nonnull %4, ptr noundef nonnull %3) #8
  %8 = icmp eq i32 %7, -1
  br i1 %8, label %9, label %12

9:                                                ; preds = %2
  %10 = load ptr, ptr getelementptr inbounds (%struct._zend_executor_globals, ptr @executor_globals, i64 0, i32 50), align 8
  %11 = icmp ne ptr %10, null
  call void @llvm.assume(i1 %11)
  br label %29

12:                                               ; preds = %2
  %13 = getelementptr inbounds i8, ptr %0, i64 32
  %14 = load ptr, ptr %13, align 8
  %15 = getelementptr inbounds i8, ptr %14, i64 -24
  %16 = load ptr, ptr %15, align 8
  %17 = icmp eq ptr %16, null
  br i1 %17, label %18, label %26

18:                                               ; preds = %12
  %19 = getelementptr inbounds i8, ptr %14, i64 16
  %20 = load ptr, ptr %19, align 8
  %21 = getelementptr inbounds i8, ptr %20, i64 8
  %22 = load ptr, ptr %21, align 8
  %23 = getelementptr inbounds i8, ptr %22, i64 24
  call void (ptr, ptr, ...) @zend_throw_error(ptr noundef null, ptr noundef nonnull @.str.5, ptr noundef nonnull %23) #8
  %24 = load ptr, ptr getelementptr inbounds (%struct._zend_executor_globals, ptr @executor_globals, i64 0, i32 50), align 8
  %25 = icmp ne ptr %24, null
  call void @llvm.assume(i1 %25)
  br label %29

26:                                               ; preds = %12
  %27 = load ptr, ptr %4, align 8
  %28 = load i32, ptr %3, align 4
  call void @dom_parent_node_replace_children(ptr noundef nonnull %15, ptr noundef %27, i32 noundef %28) #8
  br label %29

29:                                               ; preds = %26, %18, %9
  ret void
}